Certificate:
    Data:
        Version: 3 (0x2)
        Serial Number: 2 (0x2)
    Signature Algorithm: sha1WithRSAEncryption
        Issuer: C=AU, ST=Western, O=Example LTD, OU=ExampleDep, CN=ca/emailAddress=ca@ca.com
        Validity
            Not Before: Jun 17 07:40:12 2013 GMT
            Not After : Jun 17 07:40:12 2015 GMT
        Subject: C=AU, ST=Western, O=Example LTD, OU=ExampleDep, CN=bad/emailAddress=bad@bad.com
        Subject Public Key Info:
            Public Key Algorithm: rsaEncryption
                Public-Key: (1024 bit)
                Modulus:
                    00:b8:d1:32:20:a0:ce:d6:2e:80:0d:f9:9c:e0:f7:
                    3c:ec:e3:88:81:c0:e4:54:f4:fc:cb:97:d1:f1:db:
                    e6:57:d4:90:45:93:27:29:c3:6b:f7:fa:85:78:8f:
                    17:0c:fd:39:75:ce:e6:34:e1:cd:c6:ee:b1:62:c0:
                    73:b2:22:9f:90:b1:bb:36:16:77:50:86:9a:80:65:
                    e1:50:3c:73:15:b6:91:5c:19:cd:ab:a6:45:42:01:
                    64:58:ec:77:5b:78:af:17:76:89:ad:2f:50:81:9a:
                    33:34:76:d5:f5:b8:5f:0b:ee:4b:d7:bd:37:e5:d7:
                    8e:2c:3a:99:ca:96:47:d9:cf
                Exponent: 65537 (0x10001)
        X509v3 extensions:
            X509v3 Basic Constraints: 
                CA:FALSE
            Netscape Comment: 
                OpenSSL Generated Certificate
            X509v3 Subject Key Identifier: 
                78:8D:A0:32:F5:F9:88:1C:52:08:69:CD:0E:71:7C:36:7A:10:F5:F3
            X509v3 Authority Key Identifier: 
                DirName:/C=AU/ST=Western/O=Example LTD/OU=ExampleDep/CN=ca/emailAddress=ca@ca.com
                serial:DD:5C:EA:97:01:FA:9F:8E

    Signature Algorithm: sha1WithRSAEncryption
         5b:14:3f:02:44:7b:45:d4:ee:72:52:52:c1:83:0b:c9:6a:f0:
         42:a2:dc:b2:52:4e:81:cf:e6:7d:d2:4f:75:e3:51:2a:c6:29:
         f1:26:3d:0c:b6:6d:0d:a1:9f:d6:71:ff:87:94:df:f4:41:5d:
         99:c6:d0:cf:8a:26:48:4b:10:28:c8:1c:21:71:62:c0:3b:6c:
         9f:59:24:dd:9f:35:81:15:69:0c:ee:de:dd:5b:6b:20:6c:88:
         95:24:22:29:aa:0d:d2:60:89:a4:10:fe:f8:df:5f:5e:08:10:
         b3:0e:15:a0:76:c6:e9:7d:64:76:84:48:73:20:92:04:63:7c:
         7f:7d
-----BEGIN CERTIFICATE-----
MIIDRzCCArCgAwIBAgIBAjANBgkqhkiG9w0BAQUFADBxMQswCQYDVQQGEwJBVTEQ
MA4GA1UECAwHV2VzdGVybjEUMBIGA1UECgwLRXhhbXBsZSBMVEQxEzARBgNVBAsM
CkV4YW1wbGVEZXAxCzAJBgNVBAMMAmNhMRgwFgYJKoZIhvcNAQkBFgljYUBjYS5j
b20wHhcNMTMwNjE3MDc0MDEyWhcNMTUwNjE3MDc0MDEyWjB0MQswCQYDVQQGEwJB
VTEQMA4GA1UECAwHV2VzdGVybjEUMBIGA1UECgwLRXhhbXBsZSBMVEQxEzARBgNV
BAsMCkV4YW1wbGVEZXAxDDAKBgNVBAMMA2JhZDEaMBgGCSqGSIb3DQEJARYLYmFk
QGJhZC5jb20wgZ8wDQYJKoZIhvcNAQEBBQADgY0AMIGJAoGBALjRMiCgztYugA35
nOD3POzjiIHA5FT0/MuX0fHb5lfUkEWTJynDa/f6hXiPFwz9OXXO5jThzcbusWLA
c7Iin5CxuzYWd1CGmoBl4VA8cxW2kVwZzaumRUIBZFjsd1t4rxd2ia0vUIGaMzR2
1fW4XwvuS9e9N+XXjiw6mcqWR9nPAgMBAAGjgeswgegwCQYDVR0TBAIwADAsBglg
hkgBhvhCAQ0EHxYdT3BlblNTTCBHZW5lcmF0ZWQgQ2VydGlmaWNhdGUwHQYDVR0O
BBYEFHiNoDL1+YgcUghpzQ5xfDZ6EPXzMIGNBgNVHSMEgYUwgYKhdaRzMHExCzAJ
BgNVBAYTAkFVMRAwDgYDVQQIDAdXZXN0ZXJuMRQwEgYDVQQKDAtFeGFtcGxlIExU
RDETMBEGA1UECwwKRXhhbXBsZURlcDELMAkGA1UEAwwCY2ExGDAWBgkqhkiG9w0B
CQEWCWNhQGNhLmNvbYIJAN1c6pcB+p+OMA0GCSqGSIb3DQEBBQUAA4GBAFsUPwJE
e0XU7nJSUsGDC8lq8EKi3LJSToHP5n3ST3XjUSrGKfEmPQy2bQ2hn9Zx/4eU3/RB
XZnG0M+KJkhLECjIHCFxYsA7bJ9ZJN2fNYEVaQzu3t1bayBsiJUkIimqDdJgiaQQ
/vjfX14IELMOFaB2xul9ZHaESHMgkgRjfH99
-----END CERTIFICATE-----
