Certificate:
    Data:
        Version: 3 (0x2)
        Serial Number: 0 (0x0)
    Signature Algorithm: sha1WithRSAEncryption
        Issuer: C=AU, ST=Western, O=Example LTD, OU=ExampleDep, CN=bad/emailAddress=bad@bad.com
        Validity
            Not Before: Jun 17 07:40:12 2013 GMT
            Not After : Jun 17 07:40:12 2015 GMT
        Subject: C=AU, ST=Western, O=Example LTD, OU=ExampleDep, CN=client/emailAddress=client@client.com
        Subject Public Key Info:
            Public Key Algorithm: rsaEncryption
                Public-Key: (1024 bit)
                Modulus:
                    00:d4:1c:51:55:24:de:60:d0:00:74:64:f7:44:db:
                    ba:2a:c1:02:bf:23:42:79:00:ea:70:19:31:e3:50:
                    ba:47:d4:a7:2e:4a:76:1c:3f:59:7b:86:ec:8d:44:
                    15:85:54:03:22:c6:a3:ad:15:72:8a:0c:88:f0:da:
                    a3:16:18:84:81:4b:0e:c4:58:fe:d8:8e:bf:51:4a:
                    b9:48:e2:bb:c9:ec:af:0f:2a:7d:09:c2:f8:ad:3f:
                    9f:9d:d5:0a:1d:fb:00:48:3c:d3:75:f1:4d:8e:6e:
                    4e:fb:fe:81:49:1a:85:17:6c:a7:2e:84:d7:79:fa:
                    09:44:9c:28:bf:04:f7:3d:ad
                Exponent: 65537 (0x10001)
        X509v3 extensions:
            X509v3 Basic Constraints: 
                CA:FALSE
            Netscape Comment: 
                OpenSSL Generated Certificate
            X509v3 Subject Key Identifier: 
                F3:B3:4A:01:E8:4C:61:E0:66:A8:59:2D:5B:1B:00:A3:A5:0B:A7:C5
            X509v3 Authority Key Identifier: 
                DirName:/C=AU/ST=Western/O=Example LTD/OU=ExampleDep/CN=bad/emailAddress=bad@bad.com
                serial:97:FE:17:3E:5F:59:CA:2C

    Signature Algorithm: sha1WithRSAEncryption
         52:ba:5a:c5:07:20:01:dc:2d:23:a8:6f:20:f8:bd:94:6b:cf:
         a8:00:f7:d9:7f:4f:79:56:b5:a9:9c:72:82:fc:ec:0c:40:37:
         43:e1:b3:2c:d3:3e:f5:be:2e:06:37:17:7c:38:73:08:d8:66:
         fb:10:79:6f:3d:e5:b7:ac:11:f3:63:d6:88:13:50:29:94:fe:
         fc:0f:06:0d:fd:c9:43:4e:90:8e:42:9f:91:07:ea:c2:e3:c5:
         ac:fa:5a:2a:4f:3f:33:1c:ce:ba:20:a9:94:0e:a8:57:af:f6:
         b0:8e:12:0f:0d:5f:55:a9:c0:b9:64:db:fd:67:6d:ca:48:8a:
         78:22
-----BEGIN CERTIFICATE-----
MIIDVjCCAr+gAwIBAgIBADANBgkqhkiG9w0BAQUFADB0MQswCQYDVQQGEwJBVTEQ
MA4GA1UECAwHV2VzdGVybjEUMBIGA1UECgwLRXhhbXBsZSBMVEQxEzARBgNVBAsM
CkV4YW1wbGVEZXAxDDAKBgNVBAMMA2JhZDEaMBgGCSqGSIb3DQEJARYLYmFkQGJh
ZC5jb20wHhcNMTMwNjE3MDc0MDEyWhcNMTUwNjE3MDc0MDEyWjB9MQswCQYDVQQG
EwJBVTEQMA4GA1UECAwHV2VzdGVybjEUMBIGA1UECgwLRXhhbXBsZSBMVEQxEzAR
BgNVBAsMCkV4YW1wbGVEZXAxDzANBgNVBAMMBmNsaWVudDEgMB4GCSqGSIb3DQEJ
ARYRY2xpZW50QGNsaWVudC5jb20wgZ8wDQYJKoZIhvcNAQEBBQADgY0AMIGJAoGB
ANQcUVUk3mDQAHRk90TbuirBAr8jQnkA6nAZMeNQukfUpy5Kdhw/WXuG7I1EFYVU
AyLGo60VcooMiPDaoxYYhIFLDsRY/tiOv1FKuUjiu8nsrw8qfQnC+K0/n53VCh37
AEg803XxTY5uTvv+gUkahRdspy6E13n6CUScKL8E9z2tAgMBAAGjge4wgeswCQYD
VR0TBAIwADAsBglghkgBhvhCAQ0EHxYdT3BlblNTTCBHZW5lcmF0ZWQgQ2VydGlm
aWNhdGUwHQYDVR0OBBYEFPOzSgHoTGHgZqhZLVsbAKOlC6fFMIGQBgNVHSMEgYgw
gYWheKR2MHQxCzAJBgNVBAYTAkFVMRAwDgYDVQQIDAdXZXN0ZXJuMRQwEgYDVQQK
DAtFeGFtcGxlIExURDETMBEGA1UECwwKRXhhbXBsZURlcDEMMAoGA1UEAwwDYmFk
MRowGAYJKoZIhvcNAQkBFgtiYWRAYmFkLmNvbYIJAJf+Fz5fWcosMA0GCSqGSIb3
DQEBBQUAA4GBAFK6WsUHIAHcLSOobyD4vZRrz6gA99l/T3lWtamccoL87AxAN0Ph
syzTPvW+LgY3F3w4cwjYZvsQeW895besEfNj1ogTUCmU/vwPBg39yUNOkI5Cn5EH
6sLjxaz6WipPPzMczrogqZQOqFev9rCOEg8NX1WpwLlk2/1nbcpIingi
-----END CERTIFICATE-----
