Certificate:
    Data:
        Version: 3 (0x2)
        Serial Number: 0 (0x0)
    Signature Algorithm: sha1WithRSAEncryption
        Issuer: C=AU, ST=Western, O=Example LTD, OU=ExampleDep, CN=ca/emailAddress=ca@ca.com
        Validity
            Not Before: Jun 26 06:07:06 2013 GMT
            Not After : Jun 26 06:07:06 2015 GMT
        Subject: C=AU, ST=Western, O=Example LTD, OU=ExampleDep, CN=client/emailAddress=client@client.com
        Subject Public Key Info:
            Public Key Algorithm: rsaEncryption
                Public-Key: (1024 bit)
                Modulus:
                    00:c9:df:37:de:1a:c7:be:73:20:ca:a3:a9:f0:15:
                    13:9e:26:ed:49:2d:45:5c:af:2d:8d:f7:6a:b9:13:
                    a9:81:37:00:e0:e5:62:31:6a:a6:a0:f4:eb:0a:a6:
                    0b:aa:11:92:62:15:dd:3d:f4:88:1f:77:cc:2f:cc:
                    8e:a4:2e:91:0e:0c:8b:eb:75:3e:9b:19:ea:ae:60:
                    ab:ea:d3:20:72:d2:be:f2:6c:d2:d0:29:b2:98:0d:
                    56:76:61:0f:b1:03:66:43:45:80:12:9a:2a:d9:b5:
                    4b:27:8d:6a:8d:82:63:6e:e0:10:04:0f:49:ca:c1:
                    f0:af:2c:15:34:fb:36:3a:05
                Exponent: 65537 (0x10001)
        X509v3 extensions:
            X509v3 Basic Constraints: 
                CA:FALSE
            Netscape Comment: 
                OpenSSL Generated Certificate
            X509v3 Subject Key Identifier: 
                18:67:74:72:22:78:6C:33:4D:FA:3B:DB:CE:2F:30:4A:0F:F3:6C:F3
            X509v3 Authority Key Identifier: 
                DirName:/C=AU/ST=Western/O=Example LTD/OU=ExampleDep/CN=ca/emailAddress=ca@ca.com
                serial:CF:73:17:56:89:AA:B2:8D

    Signature Algorithm: sha1WithRSAEncryption
         55:2a:1a:30:33:1f:6a:22:6e:69:ca:61:59:f4:cb:b0:b9:b9:
         a8:7f:8c:e8:60:cb:30:42:df:30:e9:bf:db:87:80:dc:1e:f5:
         cf:80:79:e3:7d:75:a3:f4:d1:38:bf:62:4b:17:39:14:c0:d3:
         56:57:78:9a:bf:27:75:c4:2f:db:21:3b:19:3b:7b:7a:37:db:
         f8:68:25:df:aa:8d:2f:dd:cc:34:e4:8c:2d:f4:3c:9a:b3:5b:
         e1:65:46:65:8c:23:c3:2c:a5:77:2a:f4:f1:5c:87:6d:12:61:
         51:ee:75:e1:f5:5a:9e:77:8e:f4:eb:48:bc:8c:9e:b6:69:87:
         70:ab
-----BEGIN CERTIFICATE-----
MIIDUDCCArmgAwIBAgIBADANBgkqhkiG9w0BAQUFADBxMQswCQYDVQQGEwJBVTEQ
MA4GA1UECAwHV2VzdGVybjEUMBIGA1UECgwLRXhhbXBsZSBMVEQxEzARBgNVBAsM
CkV4YW1wbGVEZXAxCzAJBgNVBAMMAmNhMRgwFgYJKoZIhvcNAQkBFgljYUBjYS5j
b20wHhcNMTMwNjI2MDYwNzA2WhcNMTUwNjI2MDYwNzA2WjB9MQswCQYDVQQGEwJB
VTEQMA4GA1UECAwHV2VzdGVybjEUMBIGA1UECgwLRXhhbXBsZSBMVEQxEzARBgNV
BAsMCkV4YW1wbGVEZXAxDzANBgNVBAMMBmNsaWVudDEgMB4GCSqGSIb3DQEJARYR
Y2xpZW50QGNsaWVudC5jb20wgZ8wDQYJKoZIhvcNAQEBBQADgY0AMIGJAoGBAMnf
N94ax75zIMqjqfAVE54m7UktRVyvLY33arkTqYE3AODlYjFqpqD06wqmC6oRkmIV
3T30iB93zC/MjqQukQ4Mi+t1PpsZ6q5gq+rTIHLSvvJs0tApspgNVnZhD7EDZkNF
gBKaKtm1SyeNao2CY27gEAQPScrB8K8sFTT7NjoFAgMBAAGjgeswgegwCQYDVR0T
BAIwADAsBglghkgBhvhCAQ0EHxYdT3BlblNTTCBHZW5lcmF0ZWQgQ2VydGlmaWNh
dGUwHQYDVR0OBBYEFBhndHIieGwzTfo7284vMEoP82zzMIGNBgNVHSMEgYUwgYKh
daRzMHExCzAJBgNVBAYTAkFVMRAwDgYDVQQIDAdXZXN0ZXJuMRQwEgYDVQQKDAtF
eGFtcGxlIExURDETMBEGA1UECwwKRXhhbXBsZURlcDELMAkGA1UEAwwCY2ExGDAW
BgkqhkiG9w0BCQEWCWNhQGNhLmNvbYIJAM9zF1aJqrKNMA0GCSqGSIb3DQEBBQUA
A4GBAFUqGjAzH2oibmnKYVn0y7C5uah/jOhgyzBC3zDpv9uHgNwe9c+AeeN9daP0
0Ti/YksXORTA01ZXeJq/J3XEL9shOxk7e3o32/hoJd+qjS/dzDTkjC30PJqzW+Fl
RmWMI8MspXcq9PFch20SYVHudeH1Wp53jvTrSLyMnrZph3Cr
-----END CERTIFICATE-----
