Certificate:
    Data:
        Version: 3 (0x2)
        Serial Number: 0 (0x0)
    Signature Algorithm: sha1WithRSAEncryption
        Issuer: C=AU, ST=Western, O=Example LTD, OU=ExampleDep, CN=ca/emailAddress=ca@ca.com
        Validity
            Not Before: Jun 17 07:40:12 2013 GMT
            Not After : Jun 17 07:40:12 2015 GMT
        Subject: C=AU, ST=Western, O=Example LTD, OU=ExampleDep, CN=client/emailAddress=client@client.com
        Subject Public Key Info:
            Public Key Algorithm: rsaEncryption
                Public-Key: (1024 bit)
                Modulus:
                    00:d4:1c:51:55:24:de:60:d0:00:74:64:f7:44:db:
                    ba:2a:c1:02:bf:23:42:79:00:ea:70:19:31:e3:50:
                    ba:47:d4:a7:2e:4a:76:1c:3f:59:7b:86:ec:8d:44:
                    15:85:54:03:22:c6:a3:ad:15:72:8a:0c:88:f0:da:
                    a3:16:18:84:81:4b:0e:c4:58:fe:d8:8e:bf:51:4a:
                    b9:48:e2:bb:c9:ec:af:0f:2a:7d:09:c2:f8:ad:3f:
                    9f:9d:d5:0a:1d:fb:00:48:3c:d3:75:f1:4d:8e:6e:
                    4e:fb:fe:81:49:1a:85:17:6c:a7:2e:84:d7:79:fa:
                    09:44:9c:28:bf:04:f7:3d:ad
                Exponent: 65537 (0x10001)
        X509v3 extensions:
            X509v3 Basic Constraints: 
                CA:FALSE
            Netscape Comment: 
                OpenSSL Generated Certificate
            X509v3 Subject Key Identifier: 
                F3:B3:4A:01:E8:4C:61:E0:66:A8:59:2D:5B:1B:00:A3:A5:0B:A7:C5
            X509v3 Authority Key Identifier: 
                DirName:/C=AU/ST=Western/O=Example LTD/OU=ExampleDep/CN=ca/emailAddress=ca@ca.com
                serial:DD:5C:EA:97:01:FA:9F:8E

    Signature Algorithm: sha1WithRSAEncryption
         b3:f5:76:e2:11:8f:88:38:c5:70:81:ff:e8:ca:34:28:15:f6:
         31:6b:3e:59:fe:ab:32:d4:ad:ca:90:79:13:93:e3:7a:72:09:
         fc:f4:5e:2a:6a:63:c6:6b:0f:24:76:a0:c7:65:90:e7:03:40:
         06:84:73:df:5e:68:fc:9e:df:24:1f:87:cf:32:0f:44:72:41:
         a2:da:5b:d2:0b:fc:e8:de:46:03:88:b0:35:c8:71:70:7b:e5:
         0d:d8:ac:53:d7:9a:e6:c1:ce:61:de:92:18:d2:9d:99:60:3b:
         91:68:c0:64:90:4d:a6:b8:a7:00:3c:02:27:ef:7a:a0:6e:2c:
         d6:e1
-----BEGIN CERTIFICATE-----
MIIDUDCCArmgAwIBAgIBADANBgkqhkiG9w0BAQUFADBxMQswCQYDVQQGEwJBVTEQ
MA4GA1UECAwHV2VzdGVybjEUMBIGA1UECgwLRXhhbXBsZSBMVEQxEzARBgNVBAsM
CkV4YW1wbGVEZXAxCzAJBgNVBAMMAmNhMRgwFgYJKoZIhvcNAQkBFgljYUBjYS5j
b20wHhcNMTMwNjE3MDc0MDEyWhcNMTUwNjE3MDc0MDEyWjB9MQswCQYDVQQGEwJB
VTEQMA4GA1UECAwHV2VzdGVybjEUMBIGA1UECgwLRXhhbXBsZSBMVEQxEzARBgNV
BAsMCkV4YW1wbGVEZXAxDzANBgNVBAMMBmNsaWVudDEgMB4GCSqGSIb3DQEJARYR
Y2xpZW50QGNsaWVudC5jb20wgZ8wDQYJKoZIhvcNAQEBBQADgY0AMIGJAoGBANQc
UVUk3mDQAHRk90TbuirBAr8jQnkA6nAZMeNQukfUpy5Kdhw/WXuG7I1EFYVUAyLG
o60VcooMiPDaoxYYhIFLDsRY/tiOv1FKuUjiu8nsrw8qfQnC+K0/n53VCh37AEg8
03XxTY5uTvv+gUkahRdspy6E13n6CUScKL8E9z2tAgMBAAGjgeswgegwCQYDVR0T
BAIwADAsBglghkgBhvhCAQ0EHxYdT3BlblNTTCBHZW5lcmF0ZWQgQ2VydGlmaWNh
dGUwHQYDVR0OBBYEFPOzSgHoTGHgZqhZLVsbAKOlC6fFMIGNBgNVHSMEgYUwgYKh
daRzMHExCzAJBgNVBAYTAkFVMRAwDgYDVQQIDAdXZXN0ZXJuMRQwEgYDVQQKDAtF
eGFtcGxlIExURDETMBEGA1UECwwKRXhhbXBsZURlcDELMAkGA1UEAwwCY2ExGDAW
BgkqhkiG9w0BCQEWCWNhQGNhLmNvbYIJAN1c6pcB+p+OMA0GCSqGSIb3DQEBBQUA
A4GBALP1duIRj4g4xXCB/+jKNCgV9jFrPln+qzLUrcqQeROT43pyCfz0XipqY8Zr
DyR2oMdlkOcDQAaEc99eaPye3yQfh88yD0RyQaLaW9IL/OjeRgOIsDXIcXB75Q3Y
rFPXmubBzmHekhjSnZlgO5FowGSQTaa4pwA8AifveqBuLNbh
-----END CERTIFICATE-----
