Certificate:
    Data:
        Version: 3 (0x2)
        Serial Number: 1 (0x1)
    Signature Algorithm: sha1WithRSAEncryption
        Issuer: C=AU, ST=Western, O=Example LTD, OU=ExampleDep, CN=ca/emailAddress=ca@ca.com
        Validity
            Not Before: Jun 26 06:07:06 2013 GMT
            Not After : Jun 26 06:07:06 2015 GMT
        Subject: C=AU, ST=Western, O=Example LTD, OU=ExampleDep, CN=server/emailAddress=server@server.com
        Subject Public Key Info:
            Public Key Algorithm: rsaEncryption
                Public-Key: (1024 bit)
                Modulus:
                    00:b1:75:b7:84:fb:db:45:cf:54:71:f0:3a:c7:5b:
                    f1:dd:6f:a2:01:26:4f:a8:0a:eb:a4:ce:7e:ec:05:
                    f4:f2:cd:28:81:8e:6f:f8:63:49:1b:d0:a8:1c:ab:
                    e6:a5:40:62:06:03:8e:50:4a:ee:fe:ef:83:c7:0b:
                    49:5e:23:69:6f:ad:2b:dc:6a:bc:69:f6:f1:47:9c:
                    57:c0:ad:66:6f:47:76:60:64:b2:1e:11:dc:b1:0a:
                    1c:2f:6a:c0:fb:6d:42:97:31:bd:e7:f7:c0:56:5e:
                    7e:06:c5:e1:a9:50:40:8b:f0:e0:fc:bc:01:bf:3a:
                    8e:10:24:69:de:b8:63:42:af
                Exponent: 65537 (0x10001)
        X509v3 extensions:
            X509v3 Basic Constraints: 
                CA:FALSE
            Netscape Comment: 
                OpenSSL Generated Certificate
            X509v3 Subject Key Identifier: 
                38:85:05:49:8F:31:95:96:4E:30:49:01:30:F8:24:AF:05:D6:9B:25
            X509v3 Authority Key Identifier: 
                DirName:/C=AU/ST=Western/O=Example LTD/OU=ExampleDep/CN=ca/emailAddress=ca@ca.com
                serial:CF:73:17:56:89:AA:B2:8D

    Signature Algorithm: sha1WithRSAEncryption
         0c:47:31:78:8e:52:7d:f6:0e:f5:a7:41:fb:fd:04:2e:cd:8f:
         1c:60:e8:d2:92:fd:d9:05:c2:25:7b:a2:fd:ae:56:32:47:c0:
         3a:d5:e8:b2:8a:f7:df:8f:2c:2d:8c:41:bc:b7:50:b2:d2:19:
         ca:ca:01:5d:31:d4:30:73:21:c3:be:12:12:3c:cb:9d:6b:60:
         e1:2d:7f:a2:dd:bc:f8:05:ce:97:4e:77:68:ee:98:80:11:e1:
         91:f6:47:af:4f:c0:6f:67:38:bf:c8:79:1c:13:8d:f4:ca:d8:
         11:a8:29:25:27:f8:ce:f3:0d:3f:bb:71:3e:85:83:88:b3:6a:
         6e:4f
-----BEGIN CERTIFICATE-----
MIIDUDCCArmgAwIBAgIBATANBgkqhkiG9w0BAQUFADBxMQswCQYDVQQGEwJBVTEQ
MA4GA1UECAwHV2VzdGVybjEUMBIGA1UECgwLRXhhbXBsZSBMVEQxEzARBgNVBAsM
CkV4YW1wbGVEZXAxCzAJBgNVBAMMAmNhMRgwFgYJKoZIhvcNAQkBFgljYUBjYS5j
b20wHhcNMTMwNjI2MDYwNzA2WhcNMTUwNjI2MDYwNzA2WjB9MQswCQYDVQQGEwJB
VTEQMA4GA1UECAwHV2VzdGVybjEUMBIGA1UECgwLRXhhbXBsZSBMVEQxEzARBgNV
BAsMCkV4YW1wbGVEZXAxDzANBgNVBAMMBnNlcnZlcjEgMB4GCSqGSIb3DQEJARYR
c2VydmVyQHNlcnZlci5jb20wgZ8wDQYJKoZIhvcNAQEBBQADgY0AMIGJAoGBALF1
t4T720XPVHHwOsdb8d1vogEmT6gK66TOfuwF9PLNKIGOb/hjSRvQqByr5qVAYgYD
jlBK7v7vg8cLSV4jaW+tK9xqvGn28UecV8CtZm9HdmBksh4R3LEKHC9qwPttQpcx
vef3wFZefgbF4alQQIvw4Py8Ab86jhAkad64Y0KvAgMBAAGjgeswgegwCQYDVR0T
BAIwADAsBglghkgBhvhCAQ0EHxYdT3BlblNTTCBHZW5lcmF0ZWQgQ2VydGlmaWNh
dGUwHQYDVR0OBBYEFDiFBUmPMZWWTjBJATD4JK8F1pslMIGNBgNVHSMEgYUwgYKh
daRzMHExCzAJBgNVBAYTAkFVMRAwDgYDVQQIDAdXZXN0ZXJuMRQwEgYDVQQKDAtF
eGFtcGxlIExURDETMBEGA1UECwwKRXhhbXBsZURlcDELMAkGA1UEAwwCY2ExGDAW
BgkqhkiG9w0BCQEWCWNhQGNhLmNvbYIJAM9zF1aJqrKNMA0GCSqGSIb3DQEBBQUA
A4GBAAxHMXiOUn32DvWnQfv9BC7Njxxg6NKS/dkFwiV7ov2uVjJHwDrV6LKK99+P
LC2MQby3ULLSGcrKAV0x1DBzIcO+EhI8y51rYOEtf6LdvPgFzpdOd2jumIAR4ZH2
R69PwG9nOL/IeRwTjfTK2BGoKSUn+M7zDT+7cT6Fg4izam5P
-----END CERTIFICATE-----
