Certificate:
    Data:
        Version: 3 (0x2)
        Serial Number: 1 (0x1)
    Signature Algorithm: sha1WithRSAEncryption
        Issuer: C=AU, ST=Western, O=Example LTD, OU=ExampleDep, CN=ca/emailAddress=ca@ca.com
        Validity
            Not Before: Jun 17 07:40:12 2013 GMT
            Not After : Jun 17 07:40:12 2015 GMT
        Subject: C=AU, ST=Western, O=Example LTD, OU=ExampleDep, CN=server/emailAddress=server@server.com
        Subject Public Key Info:
            Public Key Algorithm: rsaEncryption
                Public-Key: (1024 bit)
                Modulus:
                    00:d3:25:a8:57:57:16:ef:33:ca:5c:f9:27:02:d4:
                    3e:90:fe:43:28:07:01:81:de:18:0a:7d:fd:1e:8c:
                    41:31:37:97:28:20:03:a9:30:76:a4:dc:65:8a:5f:
                    4c:88:18:75:ab:3e:a2:d1:04:39:8a:05:4d:dc:98:
                    52:61:fd:a3:4a:38:d2:e9:a8:16:42:ed:56:29:9d:
                    27:02:69:93:e1:b3:1d:31:95:a9:8d:4e:1f:9e:21:
                    29:ca:2b:88:14:48:e9:85:e6:b5:74:07:b4:55:64:
                    b6:db:38:e7:36:83:85:86:03:c6:ce:0f:84:28:53:
                    7c:f3:4f:fe:86:46:75:9b:63
                Exponent: 65537 (0x10001)
        X509v3 extensions:
            X509v3 Basic Constraints: 
                CA:FALSE
            Netscape Comment: 
                OpenSSL Generated Certificate
            X509v3 Subject Key Identifier: 
                E6:3A:20:A6:B8:87:08:51:86:0F:9D:56:89:42:DA:1D:D1:32:59:33
            X509v3 Authority Key Identifier: 
                DirName:/C=AU/ST=Western/O=Example LTD/OU=ExampleDep/CN=ca/emailAddress=ca@ca.com
                serial:DD:5C:EA:97:01:FA:9F:8E

    Signature Algorithm: sha1WithRSAEncryption
         64:09:e2:bb:6c:55:10:eb:13:bd:21:cd:df:19:18:76:20:35:
         7d:cc:4b:8f:d3:1f:82:22:7b:19:79:97:6e:db:47:97:fc:9a:
         af:b3:c0:f5:85:ae:72:91:3c:3e:24:8b:19:43:b4:4c:28:92:
         69:ab:ac:eb:7f:c3:94:46:51:ba:1f:0e:a5:18:82:38:6e:f5:
         f7:c5:87:3b:a0:af:84:1d:cf:3d:99:27:71:b6:a5:46:a3:d7:
         80:5f:e1:6d:36:0a:75:53:36:c3:8d:5f:f7:95:73:81:c3:96:
         76:15:9c:4b:e5:2f:db:52:1b:61:46:f2:08:07:9f:f9:40:07:
         62:a0
-----BEGIN CERTIFICATE-----
MIIDUDCCArmgAwIBAgIBATANBgkqhkiG9w0BAQUFADBxMQswCQYDVQQGEwJBVTEQ
MA4GA1UECAwHV2VzdGVybjEUMBIGA1UECgwLRXhhbXBsZSBMVEQxEzARBgNVBAsM
CkV4YW1wbGVEZXAxCzAJBgNVBAMMAmNhMRgwFgYJKoZIhvcNAQkBFgljYUBjYS5j
b20wHhcNMTMwNjE3MDc0MDEyWhcNMTUwNjE3MDc0MDEyWjB9MQswCQYDVQQGEwJB
VTEQMA4GA1UECAwHV2VzdGVybjEUMBIGA1UECgwLRXhhbXBsZSBMVEQxEzARBgNV
BAsMCkV4YW1wbGVEZXAxDzANBgNVBAMMBnNlcnZlcjEgMB4GCSqGSIb3DQEJARYR
c2VydmVyQHNlcnZlci5jb20wgZ8wDQYJKoZIhvcNAQEBBQADgY0AMIGJAoGBANMl
qFdXFu8zylz5JwLUPpD+QygHAYHeGAp9/R6MQTE3lyggA6kwdqTcZYpfTIgYdas+
otEEOYoFTdyYUmH9o0o40umoFkLtVimdJwJpk+GzHTGVqY1OH54hKcoriBRI6YXm
tXQHtFVktts45zaDhYYDxs4PhChTfPNP/oZGdZtjAgMBAAGjgeswgegwCQYDVR0T
BAIwADAsBglghkgBhvhCAQ0EHxYdT3BlblNTTCBHZW5lcmF0ZWQgQ2VydGlmaWNh
dGUwHQYDVR0OBBYEFOY6IKa4hwhRhg+dVolC2h3RMlkzMIGNBgNVHSMEgYUwgYKh
daRzMHExCzAJBgNVBAYTAkFVMRAwDgYDVQQIDAdXZXN0ZXJuMRQwEgYDVQQKDAtF
eGFtcGxlIExURDETMBEGA1UECwwKRXhhbXBsZURlcDELMAkGA1UEAwwCY2ExGDAW
BgkqhkiG9w0BCQEWCWNhQGNhLmNvbYIJAN1c6pcB+p+OMA0GCSqGSIb3DQEBBQUA
A4GBAGQJ4rtsVRDrE70hzd8ZGHYgNX3MS4/TH4Iiexl5l27bR5f8mq+zwPWFrnKR
PD4kixlDtEwokmmrrOt/w5RGUbofDqUYgjhu9ffFhzugr4Qdzz2ZJ3G2pUaj14Bf
4W02CnVTNsONX/eVc4HDlnYVnEvlL9tSG2FG8ggHn/lAB2Kg
-----END CERTIFICATE-----
