Certificate:
    Data:
        Version: 3 (0x2)
        Serial Number: 1 (0x1)
    Signature Algorithm: sha1WithRSAEncryption
        Issuer: C=AU, ST=Western, O=Example LTD, OU=ExampleDep, CN=badbad/emailAddress=badbad@badbad.com
        Validity
            Not Before: Jun 26 06:07:06 2013 GMT
            Not After : Jun 26 06:07:06 2015 GMT
        Subject: C=AU, ST=Western, O=Example LTD, OU=ExampleDep, CN=server/emailAddress=server@server.com
        Subject Public Key Info:
            Public Key Algorithm: rsaEncryption
                Public-Key: (1024 bit)
                Modulus:
                    00:b1:75:b7:84:fb:db:45:cf:54:71:f0:3a:c7:5b:
                    f1:dd:6f:a2:01:26:4f:a8:0a:eb:a4:ce:7e:ec:05:
                    f4:f2:cd:28:81:8e:6f:f8:63:49:1b:d0:a8:1c:ab:
                    e6:a5:40:62:06:03:8e:50:4a:ee:fe:ef:83:c7:0b:
                    49:5e:23:69:6f:ad:2b:dc:6a:bc:69:f6:f1:47:9c:
                    57:c0:ad:66:6f:47:76:60:64:b2:1e:11:dc:b1:0a:
                    1c:2f:6a:c0:fb:6d:42:97:31:bd:e7:f7:c0:56:5e:
                    7e:06:c5:e1:a9:50:40:8b:f0:e0:fc:bc:01:bf:3a:
                    8e:10:24:69:de:b8:63:42:af
                Exponent: 65537 (0x10001)
        X509v3 extensions:
            X509v3 Basic Constraints: 
                CA:FALSE
            Netscape Comment: 
                OpenSSL Generated Certificate
            X509v3 Subject Key Identifier: 
                38:85:05:49:8F:31:95:96:4E:30:49:01:30:F8:24:AF:05:D6:9B:25
            X509v3 Authority Key Identifier: 
                DirName:/C=AU/ST=Western/O=Example LTD/OU=ExampleDep/CN=badbad/emailAddress=badbad@badbad.com
                serial:B3:43:A6:F2:26:E1:B8:BE

    Signature Algorithm: sha1WithRSAEncryption
         a8:94:d9:e7:6a:a0:8c:11:ea:d7:05:b6:ac:a7:26:64:dc:9a:
         32:95:ef:84:3f:4c:f0:50:14:11:f1:a1:21:3c:c5:04:27:56:
         11:9d:18:69:f5:31:f1:29:08:37:cd:59:2e:e5:d6:c6:b0:92:
         51:37:8e:b1:0a:02:8d:3d:7a:d9:5c:bc:34:ba:aa:70:a0:d2:
         56:7d:70:22:be:17:c0:22:b0:e7:02:e5:21:fc:d3:98:0d:0e:
         8d:2f:ff:27:19:5c:4f:94:e7:22:1c:9f:e1:4c:f8:65:c7:2f:
         3c:8d:5c:ed:b9:61:13:21:56:13:c1:4c:ee:5c:5c:16:8f:81:
         b0:e3
-----BEGIN CERTIFICATE-----
MIIDaTCCAtKgAwIBAgIBATANBgkqhkiG9w0BAQUFADB9MQswCQYDVQQGEwJBVTEQ
MA4GA1UECAwHV2VzdGVybjEUMBIGA1UECgwLRXhhbXBsZSBMVEQxEzARBgNVBAsM
CkV4YW1wbGVEZXAxDzANBgNVBAMMBmJhZGJhZDEgMB4GCSqGSIb3DQEJARYRYmFk
YmFkQGJhZGJhZC5jb20wHhcNMTMwNjI2MDYwNzA2WhcNMTUwNjI2MDYwNzA2WjB9
MQswCQYDVQQGEwJBVTEQMA4GA1UECAwHV2VzdGVybjEUMBIGA1UECgwLRXhhbXBs
ZSBMVEQxEzARBgNVBAsMCkV4YW1wbGVEZXAxDzANBgNVBAMMBnNlcnZlcjEgMB4G
CSqGSIb3DQEJARYRc2VydmVyQHNlcnZlci5jb20wgZ8wDQYJKoZIhvcNAQEBBQAD
gY0AMIGJAoGBALF1t4T720XPVHHwOsdb8d1vogEmT6gK66TOfuwF9PLNKIGOb/hj
SRvQqByr5qVAYgYDjlBK7v7vg8cLSV4jaW+tK9xqvGn28UecV8CtZm9HdmBksh4R
3LEKHC9qwPttQpcxvef3wFZefgbF4alQQIvw4Py8Ab86jhAkad64Y0KvAgMBAAGj
gfgwgfUwCQYDVR0TBAIwADAsBglghkgBhvhCAQ0EHxYdT3BlblNTTCBHZW5lcmF0
ZWQgQ2VydGlmaWNhdGUwHQYDVR0OBBYEFDiFBUmPMZWWTjBJATD4JK8F1pslMIGa
BgNVHSMEgZIwgY+hgYGkfzB9MQswCQYDVQQGEwJBVTEQMA4GA1UECAwHV2VzdGVy
bjEUMBIGA1UECgwLRXhhbXBsZSBMVEQxEzARBgNVBAsMCkV4YW1wbGVEZXAxDzAN
BgNVBAMMBmJhZGJhZDEgMB4GCSqGSIb3DQEJARYRYmFkYmFkQGJhZGJhZC5jb22C
CQCzQ6byJuG4vjANBgkqhkiG9w0BAQUFAAOBgQColNnnaqCMEerXBbaspyZk3Joy
le+EP0zwUBQR8aEhPMUEJ1YRnRhp9THxKQg3zVku5dbGsJJRN46xCgKNPXrZXLw0
uqpwoNJWfXAivhfAIrDnAuUh/NOYDQ6NL/8nGVxPlOciHJ/hTPhlxy88jVztuWET
IVYTwUzuXFwWj4Gw4w==
-----END CERTIFICATE-----
