Certificate:
    Data:
        Version: 3 (0x2)
        Serial Number: 0 (0x0)
    Signature Algorithm: sha1WithRSAEncryption
        Issuer: C=AU, ST=Western, O=Example LTD, OU=ExampleDep, CN=badbad/emailAddress=badbad@badbad.com
        Validity
            Not Before: Jun 26 06:07:06 2013 GMT
            Not After : Jun 26 06:07:06 2015 GMT
        Subject: C=AU, ST=Western, O=Example LTD, OU=ExampleDep, CN=client/emailAddress=client@client.com
        Subject Public Key Info:
            Public Key Algorithm: rsaEncryption
                Public-Key: (1024 bit)
                Modulus:
                    00:c9:df:37:de:1a:c7:be:73:20:ca:a3:a9:f0:15:
                    13:9e:26:ed:49:2d:45:5c:af:2d:8d:f7:6a:b9:13:
                    a9:81:37:00:e0:e5:62:31:6a:a6:a0:f4:eb:0a:a6:
                    0b:aa:11:92:62:15:dd:3d:f4:88:1f:77:cc:2f:cc:
                    8e:a4:2e:91:0e:0c:8b:eb:75:3e:9b:19:ea:ae:60:
                    ab:ea:d3:20:72:d2:be:f2:6c:d2:d0:29:b2:98:0d:
                    56:76:61:0f:b1:03:66:43:45:80:12:9a:2a:d9:b5:
                    4b:27:8d:6a:8d:82:63:6e:e0:10:04:0f:49:ca:c1:
                    f0:af:2c:15:34:fb:36:3a:05
                Exponent: 65537 (0x10001)
        X509v3 extensions:
            X509v3 Basic Constraints: 
                CA:FALSE
            Netscape Comment: 
                OpenSSL Generated Certificate
            X509v3 Subject Key Identifier: 
                18:67:74:72:22:78:6C:33:4D:FA:3B:DB:CE:2F:30:4A:0F:F3:6C:F3
            X509v3 Authority Key Identifier: 
                DirName:/C=AU/ST=Western/O=Example LTD/OU=ExampleDep/CN=badbad/emailAddress=badbad@badbad.com
                serial:B3:43:A6:F2:26:E1:B8:BE

    Signature Algorithm: sha1WithRSAEncryption
         c8:87:ae:9c:a0:c1:b3:58:a5:84:ea:d5:53:4b:6b:c8:7f:f1:
         5c:3e:43:b2:43:0b:cc:b3:a4:23:b6:88:fc:9a:93:e0:53:91:
         f8:0a:48:6d:26:46:2d:56:fe:3b:71:3e:12:85:9c:7d:1a:a2:
         fa:2f:37:ae:71:c7:e9:df:b3:48:2e:83:64:09:38:ab:20:9e:
         f0:fa:68:71:75:48:7d:52:73:e6:67:01:6c:cc:d4:17:45:92:
         39:a5:6e:10:2a:02:74:01:69:41:e4:e1:59:41:08:aa:bf:ee:
         87:d4:db:14:45:0c:72:87:f7:ef:aa:39:6c:e8:56:3d:e6:dc:
         f3:e5
-----BEGIN CERTIFICATE-----
MIIDaTCCAtKgAwIBAgIBADANBgkqhkiG9w0BAQUFADB9MQswCQYDVQQGEwJBVTEQ
MA4GA1UECAwHV2VzdGVybjEUMBIGA1UECgwLRXhhbXBsZSBMVEQxEzARBgNVBAsM
CkV4YW1wbGVEZXAxDzANBgNVBAMMBmJhZGJhZDEgMB4GCSqGSIb3DQEJARYRYmFk
YmFkQGJhZGJhZC5jb20wHhcNMTMwNjI2MDYwNzA2WhcNMTUwNjI2MDYwNzA2WjB9
MQswCQYDVQQGEwJBVTEQMA4GA1UECAwHV2VzdGVybjEUMBIGA1UECgwLRXhhbXBs
ZSBMVEQxEzARBgNVBAsMCkV4YW1wbGVEZXAxDzANBgNVBAMMBmNsaWVudDEgMB4G
CSqGSIb3DQEJARYRY2xpZW50QGNsaWVudC5jb20wgZ8wDQYJKoZIhvcNAQEBBQAD
gY0AMIGJAoGBAMnfN94ax75zIMqjqfAVE54m7UktRVyvLY33arkTqYE3AODlYjFq
pqD06wqmC6oRkmIV3T30iB93zC/MjqQukQ4Mi+t1PpsZ6q5gq+rTIHLSvvJs0tAp
spgNVnZhD7EDZkNFgBKaKtm1SyeNao2CY27gEAQPScrB8K8sFTT7NjoFAgMBAAGj
gfgwgfUwCQYDVR0TBAIwADAsBglghkgBhvhCAQ0EHxYdT3BlblNTTCBHZW5lcmF0
ZWQgQ2VydGlmaWNhdGUwHQYDVR0OBBYEFBhndHIieGwzTfo7284vMEoP82zzMIGa
BgNVHSMEgZIwgY+hgYGkfzB9MQswCQYDVQQGEwJBVTEQMA4GA1UECAwHV2VzdGVy
bjEUMBIGA1UECgwLRXhhbXBsZSBMVEQxEzARBgNVBAsMCkV4YW1wbGVEZXAxDzAN
BgNVBAMMBmJhZGJhZDEgMB4GCSqGSIb3DQEJARYRYmFkYmFkQGJhZGJhZC5jb22C
CQCzQ6byJuG4vjANBgkqhkiG9w0BAQUFAAOBgQDIh66coMGzWKWE6tVTS2vIf/Fc
PkOyQwvMs6Qjtoj8mpPgU5H4CkhtJkYtVv47cT4ShZx9GqL6Lzeuccfp37NILoNk
CTirIJ7w+mhxdUh9UnPmZwFszNQXRZI5pW4QKgJ0AWlB5OFZQQiqv+6H1NsURQxy
h/fvqjls6FY95tzz5Q==
-----END CERTIFICATE-----
