Certificate:
    Data:
        Version: 3 (0x2)
        Serial Number: 2 (0x2)
    Signature Algorithm: sha1WithRSAEncryption
        Issuer: C=AU, ST=Western, O=Example LTD, OU=ExampleDep, CN=ca/emailAddress=ca@ca.com
        Validity
            Not Before: Jun 26 06:07:06 2013 GMT
            Not After : Jun 26 06:07:06 2015 GMT
        Subject: C=AU, ST=Western, O=Example LTD, OU=ExampleDep, CN=badbad/emailAddress=badbad@badbad.com
        Subject Public Key Info:
            Public Key Algorithm: rsaEncryption
                Public-Key: (1024 bit)
                Modulus:
                    00:cc:e8:e0:f2:41:c9:27:a3:8b:9d:da:cc:d2:ab:
                    0f:38:93:4d:80:5e:f4:bc:4e:77:95:5e:b2:f3:40:
                    6a:12:6e:5f:cf:26:58:d3:4c:cd:4a:69:a3:44:06:
                    90:db:ef:bf:13:3b:41:1e:41:d8:93:38:41:72:40:
                    4e:15:0f:f2:5e:38:82:20:a6:b9:92:00:ba:b2:16:
                    6d:a5:8d:5f:23:6c:3c:72:a8:53:d1:17:28:78:ce:
                    8b:57:0a:c3:c9:43:e8:72:d5:5c:a2:e0:5f:0f:5e:
                    af:bd:6a:87:67:5b:d2:3d:8c:27:ad:b1:0e:da:a9:
                    6a:b4:23:50:20:a0:07:0c:e7
                Exponent: 65537 (0x10001)
        X509v3 extensions:
            X509v3 Basic Constraints: 
                CA:FALSE
            Netscape Comment: 
                OpenSSL Generated Certificate
            X509v3 Subject Key Identifier: 
                8A:76:15:79:92:9F:4C:F6:C8:4C:A9:F7:B6:3E:25:10:05:BB:87:59
            X509v3 Authority Key Identifier: 
                DirName:/C=AU/ST=Western/O=Example LTD/OU=ExampleDep/CN=ca/emailAddress=ca@ca.com
                serial:CF:73:17:56:89:AA:B2:8D

    Signature Algorithm: sha1WithRSAEncryption
         9a:cf:6d:79:a4:b5:8c:70:99:ce:66:8e:db:4f:48:d1:57:c4:
         9c:75:92:93:e0:21:0b:49:19:81:97:7c:a4:9d:24:04:60:65:
         1b:48:22:65:b6:6b:d5:9b:a5:f5:56:a7:4d:3d:88:11:71:ba:
         38:b8:01:92:a6:4f:c8:3b:2b:2c:71:72:13:d3:e2:a8:ba:43:
         ff:e0:49:78:ad:3a:14:0f:a6:73:90:a1:2f:c3:e0:5f:66:60:
         b7:af:0a:25:62:e2:00:42:18:07:59:ef:26:10:e4:b4:65:2e:
         46:a4:b9:c0:d4:c9:5d:9c:c5:7d:81:cd:55:ee:e1:1a:c8:31:
         eb:27
-----BEGIN CERTIFICATE-----
MIIDUDCCArmgAwIBAgIBAjANBgkqhkiG9w0BAQUFADBxMQswCQYDVQQGEwJBVTEQ
MA4GA1UECAwHV2VzdGVybjEUMBIGA1UECgwLRXhhbXBsZSBMVEQxEzARBgNVBAsM
CkV4YW1wbGVEZXAxCzAJBgNVBAMMAmNhMRgwFgYJKoZIhvcNAQkBFgljYUBjYS5j
b20wHhcNMTMwNjI2MDYwNzA2WhcNMTUwNjI2MDYwNzA2WjB9MQswCQYDVQQGEwJB
VTEQMA4GA1UECAwHV2VzdGVybjEUMBIGA1UECgwLRXhhbXBsZSBMVEQxEzARBgNV
BAsMCkV4YW1wbGVEZXAxDzANBgNVBAMMBmJhZGJhZDEgMB4GCSqGSIb3DQEJARYR
YmFkYmFkQGJhZGJhZC5jb20wgZ8wDQYJKoZIhvcNAQEBBQADgY0AMIGJAoGBAMzo
4PJBySeji53azNKrDziTTYBe9LxOd5VesvNAahJuX88mWNNMzUppo0QGkNvvvxM7
QR5B2JM4QXJAThUP8l44giCmuZIAurIWbaWNXyNsPHKoU9EXKHjOi1cKw8lD6HLV
XKLgXw9er71qh2db0j2MJ62xDtqparQjUCCgBwznAgMBAAGjgeswgegwCQYDVR0T
BAIwADAsBglghkgBhvhCAQ0EHxYdT3BlblNTTCBHZW5lcmF0ZWQgQ2VydGlmaWNh
dGUwHQYDVR0OBBYEFIp2FXmSn0z2yEyp97Y+JRAFu4dZMIGNBgNVHSMEgYUwgYKh
daRzMHExCzAJBgNVBAYTAkFVMRAwDgYDVQQIDAdXZXN0ZXJuMRQwEgYDVQQKDAtF
eGFtcGxlIExURDETMBEGA1UECwwKRXhhbXBsZURlcDELMAkGA1UEAwwCY2ExGDAW
BgkqhkiG9w0BCQEWCWNhQGNhLmNvbYIJAM9zF1aJqrKNMA0GCSqGSIb3DQEBBQUA
A4GBAJrPbXmktYxwmc5mjttPSNFXxJx1kpPgIQtJGYGXfKSdJARgZRtIImW2a9Wb
pfVWp009iBFxuji4AZKmT8g7KyxxchPT4qi6Q//gSXitOhQPpnOQoS/D4F9mYLev
CiVi4gBCGAdZ7yYQ5LRlLkakucDUyV2cxX2BzVXu4RrIMesn
-----END CERTIFICATE-----
